target datalayout = "e-m:e-p270:32:32-p271:32:32-p272:64:64-i64:64-i128:128-f80:128-n8:16:32:64-S128"
target triple = "x86_64-pc-linux-gnu"

%struct.archive_write_program_data = type { i32, i32, i32, ptr, i64, i64, ptr }

; Function Attrs: nounwind uwtable
define dso_local i32 @__archive_write_program_free(ptr noundef %0) #0 {
  %2 = alloca ptr, align 8
  store ptr %0, ptr %2, align 8
  %3 = load ptr, ptr %2, align 8
  %4 = icmp ne ptr %3, null
  br i1 %4, label %5, label %13

5:                                                ; preds = %1
  %6 = load ptr, ptr %2, align 8
  %7 = getelementptr inbounds %struct.archive_write_program_data, ptr %6, i32 0, i32 6
  %8 = load ptr, ptr %7, align 8
  call void @free(ptr noundef %8) #8
  %9 = load ptr, ptr %2, align 8
  %10 = getelementptr inbounds %struct.archive_write_program_data, ptr %9, i32 0, i32 3
  %11 = load ptr, ptr %10, align 8
  call void @free(ptr noundef %11) #8
  %12 = load ptr, ptr %2, align 8
  call void @free(ptr noundef %12) #8
  br label %13

13:                                               ; preds = %5, %1
  ret i32 0
}