; Function Attrs: mustprogress nounwind willreturn uwtable
define dso_local noundef i32 @__archive_write_program_free(ptr noundef %0) local_unnamed_addr #6 {
  %.not = icmp eq ptr %0, null
  br i1 %.not, label %7, label %2

2:                                                ; preds = %1
  %3 = getelementptr inbounds nuw i8, ptr %0, i64 40
  %4 = load ptr, ptr %3, align 8
  tail call void @free(ptr noundef %4) #11
  %5 = getelementptr inbounds nuw i8, ptr %0, i64 16
  %6 = load ptr, ptr %5, align 8
  tail call void @free(ptr noundef %6) #11
  tail call void @free(ptr noundef nonnull %0) #11
  br label %7

7:                                                ; preds = %2, %1
  ret i32 0
}